target datalayout = "e-m:e-p270:32:32-p271:32:32-p272:64:64-i64:64-i128:128-f80:128-n8:16:32:64-S128"
target triple = "x86_64-pc-linux-gnu"

%"class.gmx::CheckpointHelper" = type { %"class.gmx::ILastStepSignallerClient", %"class.gmx::ISimulatorElement", %"class.std::vector", %"class.std::unique_ptr", i64, i64, i8, ptr, ptr, ptr, ptr, ptr, ptr }
%"class.gmx::ILastStepSignallerClient" = type { ptr }
%"class.gmx::ISimulatorElement" = type { ptr }
%"class.std::vector" = type { %"struct.std::_Vector_base" }
%"struct.std::_Vector_base" = type { %"struct.std::_Vector_base<std::tuple<std::__cxx11::basic_string<char>, gmx::ICheckpointHelperClient *>, std::allocator<std::tuple<std::__cxx11::basic_string<char>, gmx::ICheckpointHelperClient *>>>::_Vector_impl" }
%"struct.std::_Vector_base<std::tuple<std::__cxx11::basic_string<char>, gmx::ICheckpointHelperClient *>, std::allocator<std::tuple<std::__cxx11::basic_string<char>, gmx::ICheckpointHelperClient *>>>::_Vector_impl" = type { %"struct.std::_Vector_base<std::tuple<std::__cxx11::basic_string<char>, gmx::ICheckpointHelperClient *>, std::allocator<std::tuple<std::__cxx11::basic_string<char>, gmx::ICheckpointHelperClient *>>>::_Vector_impl_data" }
%"struct.std::_Vector_base<std::tuple<std::__cxx11::basic_string<char>, gmx::ICheckpointHelperClient *>, std::allocator<std::tuple<std::__cxx11::basic_string<char>, gmx::ICheckpointHelperClient *>>>::_Vector_impl_data" = type { ptr, ptr, ptr }
%"class.std::unique_ptr" = type { %"struct.std::__uniq_ptr_data" }
%"struct.std::__uniq_ptr_data" = type { %"class.std::__uniq_ptr_impl" }
%"class.std::__uniq_ptr_impl" = type { %"class.std::tuple" }
%"class.std::tuple" = type { %"struct.std::_Tuple_impl" }
%"struct.std::_Tuple_impl" = type { %"struct.std::_Head_base.3" }
%"struct.std::_Head_base.3" = type { ptr }
%"class.gmx::CheckpointHandler" = type { ptr, i8, i32, i8, i8, i8, i8, float }

; Function Attrs: mustprogress nounwind uwtable
define linkonce_odr noundef nonnull align 8 dereferenceable(8) ptr @_ZNSt10_Head_baseILm0EPN3gmx17CheckpointHandlerELb0EE7_M_headERKS3_(ptr noundef nonnull align 8 dereferenceable(8) %0) #0 comdat align 2 {
  %2 = alloca ptr, align 8
  store ptr %0, ptr %2, align 8
  %3 = load ptr, ptr %2, align 8
  %4 = getelementptr inbounds %"struct.std::_Head_base.3", ptr %3, i32 0, i32 0
  ret ptr %4
}

; Function Attrs: mustprogress nounwind uwtable
define linkonce_odr noundef nonnull align 8 dereferenceable(8) ptr @_ZNSt11_Tuple_implILm0EJPN3gmx17CheckpointHandlerESt14default_deleteIS1_EEE7_M_headERKS5_(ptr noundef nonnull align 8 dereferenceable(8) %0) #0 comdat align 2 {
  %2 = alloca ptr, align 8
  store ptr %0, ptr %2, align 8
  %3 = load ptr, ptr %2, align 8
  %4 = call noundef nonnull align 8 dereferenceable(8) ptr @_ZNSt10_Head_baseILm0EPN3gmx17CheckpointHandlerELb0EE7_M_headERKS3_(ptr noundef nonnull align 8 dereferenceable(8) %3) #14
  ret ptr %4
}

; Function Attrs: mustprogress nounwind uwtable
define linkonce_odr noundef nonnull align 8 dereferenceable(8) ptr @_ZSt12__get_helperILm0EPN3gmx17CheckpointHandlerEJSt14default_deleteIS1_EEERKT0_RKSt11_Tuple_implIXT_EJS5_DpT1_EE(ptr noundef nonnull align 8 dereferenceable(8) %0) #0 comdat {
  %2 = alloca ptr, align 8
  store ptr %0, ptr %2, align 8
  %3 = load ptr, ptr %2, align 8
  %4 = call noundef nonnull align 8 dereferenceable(8) ptr @_ZNSt11_Tuple_implILm0EJPN3gmx17CheckpointHandlerESt14default_deleteIS1_EEE7_M_headERKS5_(ptr noundef nonnull align 8 dereferenceable(8) %3) #14
  ret ptr %4
}

; Function Attrs: mustprogress nounwind uwtable
define linkonce_odr noundef nonnull align 8 dereferenceable(8) ptr @_ZSt3getILm0EJPN3gmx17CheckpointHandlerESt14default_deleteIS1_EEERKNSt13tuple_elementIXT_ESt5tupleIJDpT0_EEE4typeERKS9_(ptr noundef nonnull align 8 dereferenceable(8) %0) #0 comdat {
  %2 = alloca ptr, align 8
  store ptr %0, ptr %2, align 8
  %3 = load ptr, ptr %2, align 8
  %4 = call noundef nonnull align 8 dereferenceable(8) ptr @_ZSt12__get_helperILm0EPN3gmx17CheckpointHandlerEJSt14default_deleteIS1_EEERKT0_RKSt11_Tuple_implIXT_EJS5_DpT1_EE(ptr noundef nonnull align 8 dereferenceable(8) %3) #14
  ret ptr %4
}

; Function Attrs: mustprogress nounwind uwtable
define linkonce_odr noundef ptr @_ZNKSt15__uniq_ptr_implIN3gmx17CheckpointHandlerESt14default_deleteIS1_EE6_M_ptrEv(ptr noundef nonnull align 8 dereferenceable(8) %0) #0 comdat align 2 {
  %2 = alloca ptr, align 8
  store ptr %0, ptr %2, align 8
  %3 = load ptr, ptr %2, align 8
  %4 = getelementptr inbounds %"class.std::__uniq_ptr_impl", ptr %3, i32 0, i32 0
  %5 = call noundef nonnull align 8 dereferenceable(8) ptr @_ZSt3getILm0EJPN3gmx17CheckpointHandlerESt14default_deleteIS1_EEERKNSt13tuple_elementIXT_ESt5tupleIJDpT0_EEE4typeERKS9_(ptr noundef nonnull align 8 dereferenceable(8) %4) #14
  %6 = load ptr, ptr %5, align 8
  ret ptr %6
}

; Function Attrs: mustprogress nounwind uwtable
define linkonce_odr noundef ptr @_ZNKSt10unique_ptrIN3gmx17CheckpointHandlerESt14default_deleteIS1_EE3getEv(ptr noundef nonnull align 8 dereferenceable(8) %0) #0 comdat align 2 {
  %2 = alloca ptr, align 8
  store ptr %0, ptr %2, align 8
  %3 = load ptr, ptr %2, align 8
  %4 = getelementptr inbounds %"class.std::unique_ptr", ptr %3, i32 0, i32 0
  %5 = call noundef ptr @_ZNKSt15__uniq_ptr_implIN3gmx17CheckpointHandlerESt14default_deleteIS1_EE6_M_ptrEv(ptr noundef nonnull align 8 dereferenceable(8) %4) #14
  ret ptr %5
}

; Function Attrs: mustprogress uwtable
define linkonce_odr void @_ZNK3gmx17CheckpointHandler9setSignalEP23gmx_walltime_accounting(ptr noundef nonnull align 8 dereferenceable(24) %0, ptr noundef %1) #1 comdat align 2 {
  %3 = alloca ptr, align 8
  %4 = alloca ptr, align 8
  store ptr %0, ptr %3, align 8
  store ptr %1, ptr %4, align 8
  %5 = load ptr, ptr %3, align 8
  %6 = getelementptr inbounds %"class.gmx::CheckpointHandler", ptr %5, i32 0, i32 3
  %7 = load i8, ptr %6, align 8
  %8 = trunc i8 %7 to i1
  br i1 %8, label %9, label %11

9:                                                ; preds = %2
  %10 = load ptr, ptr %4, align 8
  call void @_ZNK3gmx17CheckpointHandler13setSignalImplEP23gmx_walltime_accounting(ptr noundef nonnull align 8 dereferenceable(24) %5, ptr noundef %10)
  br label %11

11:                                               ; preds = %9, %2
  ret void
}

; Function Attrs: mustprogress nounwind uwtable
define linkonce_odr noundef zeroext i1 @_ZNK3gmx17CheckpointHandler19isCheckpointingStepEv(ptr noundef nonnull align 8 dereferenceable(24) %0) #0 comdat align 2 {
  %2 = alloca ptr, align 8
  store ptr %0, ptr %2, align 8
  %3 = load ptr, ptr %2, align 8
  %4 = getelementptr inbounds %"class.gmx::CheckpointHandler", ptr %3, i32 0, i32 1
  %5 = load i8, ptr %4, align 8
  %6 = trunc i8 %5 to i1
  ret i1 %6
}

; Function Attrs: mustprogress uwtable
define linkonce_odr void @_ZN3gmx17CheckpointHandler29decideIfCheckpointingThisStepEbbb(ptr noundef nonnull align 8 dereferenceable(24) %0, i1 noundef zeroext %1, i1 noundef zeroext %2, i1 noundef zeroext %3) #1 comdat align 2 {
  %5 = alloca ptr, align 8
  %6 = alloca i8, align 1
  %7 = alloca i8, align 1
  %8 = alloca i8, align 1
  store ptr %0, ptr %5, align 8
  %9 = zext i1 %1 to i8
  store i8 %9, ptr %6, align 1
  %10 = zext i1 %2 to i8
  store i8 %10, ptr %7, align 1
  %11 = zext i1 %3 to i8
  store i8 %11, ptr %8, align 1
  %12 = load ptr, ptr %5, align 8
  %13 = getelementptr inbounds %"class.gmx::CheckpointHandler", ptr %12, i32 0, i32 4
  %14 = load i8, ptr %13, align 1
  %15 = trunc i8 %14 to i1
  br i1 %15, label %16, label %23

16:                                               ; preds = %4
  %17 = load i8, ptr %6, align 1
  %18 = trunc i8 %17 to i1
  %19 = load i8, ptr %7, align 1
  %20 = trunc i8 %19 to i1
  %21 = load i8, ptr %8, align 1
  %22 = trunc i8 %21 to i1
  call void @_ZN3gmx17CheckpointHandler33decideIfCheckpointingThisStepImplEbbb(ptr noundef nonnull align 8 dereferenceable(24) %12, i1 noundef zeroext %18, i1 noundef zeroext %20, i1 noundef zeroext %22)
  br label %23

23:                                               ; preds = %16, %4
  ret void
}

; Function Attrs: mustprogress nounwind uwtable
define linkonce_odr noundef ptr @_ZNKSt10unique_ptrIN3gmx17CheckpointHandlerESt14default_deleteIS1_EEptEv(ptr noundef nonnull align 8 dereferenceable(8) %0) #0 comdat align 2 {
  %2 = alloca ptr, align 8
  store ptr %0, ptr %2, align 8
  %3 = load ptr, ptr %2, align 8
  %4 = call noundef ptr @_ZNKSt10unique_ptrIN3gmx17CheckpointHandlerESt14default_deleteIS1_EE3getEv(ptr noundef nonnull align 8 dereferenceable(8) %3) #14
  ret ptr %4
}

; Function Attrs: mustprogress uwtable
define void @_ZN3gmx16CheckpointHelper3runEld(ptr noundef nonnull align 8 dereferenceable(120) %0, i64 noundef %1, double noundef %2) #1 align 2 {
  %4 = alloca ptr, align 8
  %5 = alloca i64, align 8
  %6 = alloca double, align 8
  store ptr %0, ptr %4, align 8
  store i64 %1, ptr %5, align 8
  store double %2, ptr %6, align 8
  %7 = load ptr, ptr %4, align 8
  %8 = getelementptr inbounds %"class.gmx::CheckpointHelper", ptr %7, i32 0, i32 3
  %9 = call noundef ptr @_ZNKSt10unique_ptrIN3gmx17CheckpointHandlerESt14default_deleteIS1_EEptEv(ptr noundef nonnull align 8 dereferenceable(8) %8) #14
  %10 = load i64, ptr %5, align 8
  %11 = getelementptr inbounds %"class.gmx::CheckpointHelper", ptr %7, i32 0, i32 4
  %12 = load i64, ptr %11, align 8
  %13 = icmp eq i64 %10, %12
  call void @_ZN3gmx17CheckpointHandler29decideIfCheckpointingThisStepEbbb(ptr noundef nonnull align 8 dereferenceable(24) %9, i1 noundef zeroext true, i1 noundef zeroext %13, i1 noundef zeroext false)
  %14 = getelementptr inbounds %"class.gmx::CheckpointHelper", ptr %7, i32 0, i32 3
  %15 = call noundef ptr @_ZNKSt10unique_ptrIN3gmx17CheckpointHandlerESt14default_deleteIS1_EEptEv(ptr noundef nonnull align 8 dereferenceable(8) %14) #14
  %16 = call noundef zeroext i1 @_ZNK3gmx17CheckpointHandler19isCheckpointingStepEv(ptr noundef nonnull align 8 dereferenceable(24) %15)
  br i1 %16, label %17, label %20

17:                                               ; preds = %3
  %18 = load i64, ptr %5, align 8
  %19 = load double, ptr %6, align 8
  call void @_ZN3gmx16CheckpointHelper15writeCheckpointEld(ptr noundef nonnull align 8 dereferenceable(120) %7, i64 noundef %18, double noundef %19)
  br label %20

20:                                               ; preds = %17, %3
  %21 = getelementptr inbounds %"class.gmx::CheckpointHelper", ptr %7, i32 0, i32 3
  %22 = call noundef ptr @_ZNKSt10unique_ptrIN3gmx17CheckpointHandlerESt14default_deleteIS1_EEptEv(ptr noundef nonnull align 8 dereferenceable(8) %21) #14
  %23 = getelementptr inbounds %"class.gmx::CheckpointHelper", ptr %7, i32 0, i32 11
  %24 = load ptr, ptr %23, align 8
  call void @_ZNK3gmx17CheckpointHandler9setSignalEP23gmx_walltime_accounting(ptr noundef nonnull align 8 dereferenceable(24) %22, ptr noundef %24)
  ret void
}