; Function Attrs: mustprogress uwtable
define void @_ZN3gmx16CheckpointHelper3runEld(ptr nocapture noundef nonnull readonly align 8 dereferenceable(120) %0, i64 noundef %1, double noundef %2) local_unnamed_addr #2 align 2 {
  %4 = getelementptr inbounds i8, ptr %0, i64 40
  %5 = load ptr, ptr %4, align 8
  %6 = getelementptr inbounds i8, ptr %5, i64 17
  %7 = load i8, ptr %6, align 1
  %8 = trunc i8 %7 to i1
  br i1 %8, label %9, label %_ZN3gmx17CheckpointHandler29decideIfCheckpointingThisStepEbbb.exit

9:                                                ; preds = %3
  %10 = getelementptr inbounds i8, ptr %0, i64 48
  %11 = load i64, ptr %10, align 8
  %12 = icmp eq i64 %11, %1
  tail call void @_ZN3gmx17CheckpointHandler33decideIfCheckpointingThisStepImplEbbb(ptr noundef nonnull align 8 dereferenceable(24) %5, i1 noundef zeroext true, i1 noundef zeroext %12, i1 noundef zeroext false)
  %.pre = load ptr, ptr %4, align 8
  br label %_ZN3gmx17CheckpointHandler29decideIfCheckpointingThisStepEbbb.exit

_ZN3gmx17CheckpointHandler29decideIfCheckpointingThisStepEbbb.exit: ; preds = %3, %9
  %13 = phi ptr [ %5, %3 ], [ %.pre, %9 ]
  %14 = getelementptr inbounds i8, ptr %13, i64 8
  %15 = load i8, ptr %14, align 8
  %16 = trunc i8 %15 to i1
  br i1 %16, label %17, label %18

17:                                               ; preds = %_ZN3gmx17CheckpointHandler29decideIfCheckpointingThisStepEbbb.exit
  tail call void @_ZN3gmx16CheckpointHelper15writeCheckpointEld(ptr noundef nonnull align 8 dereferenceable(120) %0, i64 noundef %1, double noundef %2)
  %.pre3 = load ptr, ptr %4, align 8
  br label %18

18:                                               ; preds = %17, %_ZN3gmx17CheckpointHandler29decideIfCheckpointingThisStepEbbb.exit
  %19 = phi ptr [ %.pre3, %17 ], [ %13, %_ZN3gmx17CheckpointHandler29decideIfCheckpointingThisStepEbbb.exit ]
  %20 = getelementptr inbounds i8, ptr %19, i64 16
  %21 = load i8, ptr %20, align 8
  %22 = trunc i8 %21 to i1
  br i1 %22, label %23, label %_ZNK3gmx17CheckpointHandler9setSignalEP23gmx_walltime_accounting.exit

23:                                               ; preds = %18
  %24 = getelementptr inbounds i8, ptr %0, i64 104
  %25 = load ptr, ptr %24, align 8
  tail call void @_ZNK3gmx17CheckpointHandler13setSignalImplEP23gmx_walltime_accounting(ptr noundef nonnull align 8 dereferenceable(24) %19, ptr noundef %25)
  br label %_ZNK3gmx17CheckpointHandler9setSignalEP23gmx_walltime_accounting.exit

_ZNK3gmx17CheckpointHandler9setSignalEP23gmx_walltime_accounting.exit: ; preds = %18, %23
  ret void
}